; Function Attrs: mustprogress uwtable
define void @_ZNK6casadi7Diagcat7eval_mxERKSt6vectorINS_2MXESaIS2_EERS4_(ptr nocapture nonnull readnone align 8 %0, ptr noundef nonnull align 8 dereferenceable(24) %1, ptr nocapture noundef nonnull readonly align 8 dereferenceable(24) %2) unnamed_addr #3 align 2 personality ptr @__gxx_personality_v0 {
  %4 = alloca %"class.casadi::MX", align 8
  call void @_ZN6casadi2MX7diagcatERKSt6vectorIS0_SaIS0_EE(ptr dead_on_unwind nonnull writable sret(%"class.casadi::MX") align 8 %4, ptr noundef nonnull align 8 dereferenceable(24) %1)
  %5 = load ptr, ptr %2, align 8
  %6 = invoke noundef nonnull align 8 dereferenceable(8) ptr @_ZN6casadi12SharedObjectaSERKS0_(ptr noundef nonnull align 8 dereferenceable(8) %5, ptr noundef nonnull align 8 dereferenceable(8) %4)
          to label %_ZN6casadi2MXaSERKS0_.exit unwind label %7

_ZN6casadi2MXaSERKS0_.exit:                       ; preds = %3
  call void @_ZN6casadi2MXD1Ev(ptr noundef nonnull align 8 dereferenceable(8) %4) #17
  ret void

7:                                                ; preds = %3
  %8 = landingpad { ptr, i32 }
          cleanup
  call void @_ZN6casadi2MXD1Ev(ptr noundef nonnull align 8 dereferenceable(8) %4) #17
  resume { ptr, i32 } %8
}